target datalayout = "e-m:e-p270:32:32-p271:32:32-p272:64:64-i64:64-i128:128-f80:128-n8:16:32:64-S128"
target triple = "x86_64-pc-linux-gnu"

%struct.anon = type { i64, i64, i32, i32 }
%struct.fchdir_data = type { i64, i32, i32 }

@chdir_lock = internal global %struct.anon { i64 4, i64 4, i32 0, i32 0 }, align 8
@.str.19 = private unnamed_addr constant [7 x i8] c"fchdir\00", align 1

; Function Attrs: inlinehint nounwind sspstrong willreturn memory(none) uwtable
define internal zeroext i1 @RB_NIL_P(i64 noundef %0) #12 {
  %2 = alloca i64, align 8
  store i64 %0, ptr %2, align 8, !tbaa !7
  %3 = load i64, ptr %2, align 8, !tbaa !7
  %4 = icmp eq i64 %3, 4
  ret i1 %4
}

; Function Attrs: nounwind sspstrong uwtable
define internal void @chdir_enter() #0 {
  %1 = load i32, ptr getelementptr inbounds nuw (%struct.anon, ptr @chdir_lock, i32 0, i32 3), align 4, !tbaa !186
  %2 = icmp eq i32 %1, 0
  br i1 %2, label %3, label %5

3:                                                ; preds = %0
  %4 = call i64 @rb_source_location(ptr noundef getelementptr inbounds nuw (%struct.anon, ptr @chdir_lock, i32 0, i32 2))
  store i64 %4, ptr getelementptr inbounds nuw (%struct.anon, ptr @chdir_lock, i32 0, i32 1), align 8, !tbaa !189
  br label %5

5:                                                ; preds = %3, %0
  %6 = load i32, ptr getelementptr inbounds nuw (%struct.anon, ptr @chdir_lock, i32 0, i32 3), align 4, !tbaa !186
  %7 = add i32 %6, 1
  store i32 %7, ptr getelementptr inbounds nuw (%struct.anon, ptr @chdir_lock, i32 0, i32 3), align 4, !tbaa !186
  %8 = load i64, ptr @chdir_lock, align 8, !tbaa !188
  %9 = call zeroext i1 @RB_NIL_P(i64 noundef %8) #31
  br i1 %9, label %10, label %12

10:                                               ; preds = %5
  %11 = call i64 @rb_thread_current()
  store i64 %11, ptr @chdir_lock, align 8, !tbaa !188
  br label %12

12:                                               ; preds = %10, %5
  ret void
}

; Function Attrs: nounwind sspstrong uwtable
define internal void @dir_fchdir(i32 noundef %0) #0 {
  %2 = alloca i32, align 4
  %3 = alloca i32, align 4
  store i32 %0, ptr %2, align 4, !tbaa !21
  %4 = call ptr @rb_nogvl(ptr noundef @nogvl_fchdir, ptr noundef %2, ptr noundef inttoptr (i64 -1 to ptr), ptr noundef null, i32 noundef 4)
  %5 = ptrtoint ptr %4 to i64
  %6 = trunc i64 %5 to i32
  %7 = icmp slt i32 %6, 0
  br i1 %7, label %8, label %14

8:                                                ; preds = %1
  br label %9

9:                                                ; preds = %8
  call void @llvm.lifetime.start.p0(i64 4, ptr %3) #26
  %10 = call ptr @rb_errno_ptr()
  %11 = load i32, ptr %10, align 4, !tbaa !21
  store i32 %11, ptr %3, align 4, !tbaa !21
  %12 = load i32, ptr %3, align 4, !tbaa !21
  call void @rb_syserr_fail(i32 noundef %12, ptr noundef @.str.19) #30
  unreachable

13:                                               ; No predecessors!
  br label %14

14:                                               ; preds = %13, %1
  ret void
}

; Function Attrs: nounwind sspstrong uwtable
define internal i64 @fchdir_yield(i64 noundef %0) #0 {
  %2 = alloca i64, align 8
  %3 = alloca ptr, align 8
  store i64 %0, ptr %2, align 8, !tbaa !7
  call void @llvm.lifetime.start.p0(i64 8, ptr %3) #26
  %4 = load i64, ptr %2, align 8, !tbaa !7
  %5 = inttoptr i64 %4 to ptr
  store ptr %5, ptr %3, align 8, !tbaa !191
  %6 = load ptr, ptr %3, align 8, !tbaa !191
  %7 = getelementptr inbounds nuw %struct.fchdir_data, ptr %6, i32 0, i32 1
  %8 = load i32, ptr %7, align 8, !tbaa !63
  call void @dir_fchdir(i32 noundef %8)
  %9 = load ptr, ptr %3, align 8, !tbaa !191
  %10 = getelementptr inbounds nuw %struct.fchdir_data, ptr %9, i32 0, i32 2
  store i32 1, ptr %10, align 4, !tbaa !64
  call void @chdir_enter()
  %11 = call i64 (i32, ...) @rb_yield_values(i32 noundef 0)
  call void @llvm.lifetime.end.p0(i64 8, ptr %3) #26
  ret i64 %11
}