; Function Attrs: nounwind sspstrong uwtable
define internal i64 @fchdir_yield(i64 noundef %0) #0 {
  %2 = alloca i32, align 4
  %3 = inttoptr i64 %0 to ptr
  %4 = getelementptr inbounds nuw i8, ptr %3, i64 8
  %5 = load i32, ptr %4, align 8, !tbaa !74
  call void @llvm.lifetime.start.p0(i64 4, ptr nonnull %2)
  store i32 %5, ptr %2, align 4, !tbaa !58
  %6 = call ptr @rb_nogvl(ptr noundef nonnull @nogvl_fchdir, ptr noundef nonnull %2, ptr noundef nonnull inttoptr (i64 -1 to ptr), ptr noundef null, i32 noundef 4) #22
  %7 = ptrtoint ptr %6 to i64
  %8 = and i64 %7, 2147483648
  %.not.i = icmp eq i64 %8, 0
  br i1 %.not.i, label %dir_fchdir.exit, label %9

9:                                                ; preds = %1
  %10 = call ptr @rb_errno_ptr() #22
  %11 = load i32, ptr %10, align 4, !tbaa !58
  call void @rb_syserr_fail(i32 noundef %11, ptr noundef nonnull @.str.19) #26
  unreachable

dir_fchdir.exit:                                  ; preds = %1
  call void @llvm.lifetime.end.p0(i64 4, ptr nonnull %2)
  %12 = getelementptr inbounds nuw i8, ptr %3, i64 12
  store i32 1, ptr %12, align 4, !tbaa !75
  %13 = load i32, ptr getelementptr inbounds nuw (i8, ptr @chdir_lock, i64 20), align 4, !tbaa !67
  %14 = icmp eq i32 %13, 0
  br i1 %14, label %15, label %17

15:                                               ; preds = %dir_fchdir.exit
  %16 = call i64 @rb_source_location(ptr noundef nonnull getelementptr inbounds nuw (i8, ptr @chdir_lock, i64 16)) #22
  store i64 %16, ptr getelementptr inbounds nuw (i8, ptr @chdir_lock, i64 8), align 8, !tbaa !70
  %.pre.i = load i32, ptr getelementptr inbounds nuw (i8, ptr @chdir_lock, i64 20), align 4, !tbaa !67
  br label %17

17:                                               ; preds = %15, %dir_fchdir.exit
  %18 = phi i32 [ %.pre.i, %15 ], [ %13, %dir_fchdir.exit ]
  %19 = add i32 %18, 1
  store i32 %19, ptr getelementptr inbounds nuw (i8, ptr @chdir_lock, i64 20), align 4, !tbaa !67
  %20 = load i64, ptr @chdir_lock, align 8, !tbaa !69
  %21 = icmp eq i64 %20, 4
  br i1 %21, label %22, label %chdir_enter.exit

22:                                               ; preds = %17
  %23 = call i64 @rb_thread_current() #22
  store i64 %23, ptr @chdir_lock, align 8, !tbaa !69
  br label %chdir_enter.exit

chdir_enter.exit:                                 ; preds = %17, %22
  %24 = call i64 (i32, ...) @rb_yield_values(i32 noundef 0) #22
  ret i64 %24
}